MPASM 5.86                         USART.ASM   11-29-2020  22:22:28         PAGE  1


LOC  OBJECT CODE     LINE SOURCE TEXT
  VALUE

                      00001 
                      00002 ; ----------------------------------------------------
                      00003 ;        USART (mode asynchronous full-duplex)
                      00004 ; ----------------------------------------------------
                      00005 
                      00006       list p=16f877
                      00007       include "p16f877.inc"
                      00001         LIST
                      00002 
                      00003 ;==========================================================================
                      00004 ; Build date : Oct 24 2019
                      00005 ;  MPASM PIC16F877 processor include
                      00006 ; 
                      00007 ;  (c) Copyright 1999-2019 Microchip Technology, All rights reserved
                      00008 ;==========================================================================
                      00009 
Message[301]: MESSAGE: (Processor-header file mismatch.  Verify selected processor.)
                      00541         LIST
                      00008 
  0006                00009       constant   SIZE_PROMPT_MSG = 0x06   ; prompt message is 6 bytes long
  0019                00010       constant   X_VAL_SPBRG = D'25'  ; prescaler valeur pour le baud-rate generateur
                      00011 
                      00012 ; ==============================================================================
                      00013 ;                          variables/constantes
                      00014 ; ==============================================================================
                      00015       ; registers
  0000                00016       EXTERN     TX_CHAR_COUNT, CURRENT_MODE, MODE_REQUEST
                      00017       ; subprograms
  0000                00018       EXTERN      START_ADC
                      00019 
                      00020                  UDATA  0x21
0021                  00021 PTR_PROMPT_MSG   RES 1   ; pointe a msg prompt pour l'utilisateur (6 bytes)
                      00022                          ; "Test\r\n" (bank 0)
                      00023 
                      00024       ; export labels to other modules
  0000                00025       GLOBAL     PTR_PROMPT_MSG
                      00026 
                      00027 ; ==============================================================================
                      00028 ;                          peripheral configuration
                      00029 ; ==============================================================================
                      00030 
                      00031 USART_FILE    CODE
0000                  00032 USART_Config
  0000                00033     GLOBAL      USART_Config    ; export sub-program label to other modules
                      00034     ; entrees/sorties (RC6/TX/CK and RC7/RX/DT)
                      00035     ; TXUSART EST OUTPUT (RC6 -> sortie)
                      00036     ; RXUSART EST INPUT (RC7 -> entree)
0000   1683 1303      00037     banksel     TRISC
0002   3080           00038     movlw       ( 0<<TRISC6 | 1<<TRISC7 )
Message[302]: Register in operand not in bank 0.  Ensure that bank bits are correct.
0003   0087           00039     movwf       TRISC
                      00040 
                      00041     ; USART baud-rate
MPASM 5.86                         USART.ASM   11-29-2020  22:22:28         PAGE  2


LOC  OBJECT CODE     LINE SOURCE TEXT
  VALUE

                      00042     ; Utilisation de HIGH SPEED mode (BRGH = 1) pour reduire l'erreur sur le baud rate
                      00043     ; formule du baud rate = (Asynchronous) Baud Rate = FOSC/(16(X+1)) ou X  est la
                      00044     ; valeur du registre SPBRG et est de 0...255
                      00045     ; nous voulons 9600 baud avec un FOSC de 4 MHz, ca donne X = 25
0004   1683 1303      00046     banksel     SPBRG
0006   3019           00047     movlw       X_VAL_SPBRG
Message[302]: Register in operand not in bank 0.  Ensure that bank bits are correct.
0007   0099           00048     movwf       SPBRG
                      00049 
                      00050     ; mode asynchrone
                      00051     ; high speed pour reduire l'erreur
                      00052     ; 8-bit transmission mode
                      00053     ; enable la transmission
0008   1683 1303      00054     banksel     TXSTA
000A   3024           00055     movlw           ( 1<<TXEN | 0<<TX9 | 1<<BRGH | 0<<SYNC )
Message[302]: Register in operand not in bank 0.  Ensure that bank bits are correct.
000B   0098           00056     movwf           TXSTA
                      00057 
                      00058     ; peripherique serie est "enabled"
                      00059     ; enables continuous receive
000C   1283 1303      00060     banksel     RCSTA
000E   3090           00061     movlw       ( 1<<SPEN | 1<<CREN )
000F   0098           00062     movwf       RCSTA
                      00063 
0010   ???? ????      00064     banksel     TX_CHAR_COUNT
0012   01??           00065     clrf        TX_CHAR_COUNT    ; initaliser nombre de char a envoyer a 0
0013   0008           00066     return
                      00067 
                      00068 ; ==============================================================================
                      00069 ;                           Interrupt callbacks
                      00070 ; ==============================================================================
                      00071 
                      00072 ; ----------------------------------
                      00073 ;              RCIF
                      00074 ; ----------------------------------
                      00075 
0014                  00076 RCIF_Callback
  0000                00077     GLOBAL      RCIF_Callback
0014   1283 1303      00078     banksel     RCREG
0016   081A           00079     movf        RCREG, W
0017   00??           00080     movwf       MODE_REQUEST         ; save what was received into a dedicated register
                      00081                                      ; this is to avoid possibly reading 2 different
                      00082                                      ; bytes in FIFO during the XOR tests below
0018                  00083 TEST_IF_A_UPPER
0018   08??           00084     movf        MODE_REQUEST, W      ; move what was received into working reg
0019   3A41           00085     xorlw       A'A'                 ; this operation will make Z flag = 0 if
                      00086                                      ; the character 'A' was received
001A   1903           00087     btfsc       STATUS, Z
001B   2???           00088     goto SET_AUTOMATIC_MODE
                      00089 
001C                  00090 TEST_IF_A_LOWER
001C   08??           00091     movf        MODE_REQUEST, W      ; move what was received into working reg
001D   3A61           00092     xorlw       A'a'                 ; this operation will make Z flag = 0 if
MPASM 5.86                         USART.ASM   11-29-2020  22:22:28         PAGE  3


LOC  OBJECT CODE     LINE SOURCE TEXT
  VALUE

                      00093                                      ; the character 'a' was received
001E   1903           00094     btfsc       STATUS, Z
001F   2???           00095     goto SET_AUTOMATIC_MODE
                      00096 
0020                  00097 TEST_IF_R_UPPER
0020   08??           00098     movf        MODE_REQUEST, W      ; move what was received into working reg
0021   3A52           00099     xorlw       A'R'                 ; this operation will make Z flag = 0 if
                      00100                                      ; the character 'R' was received
0022   1903           00101     btfsc       STATUS, Z
0023   2???           00102     goto SET_MANUAL_MODE
                      00103 
0024                  00104 TEST_IF_R_LOWER
0024   08??           00105     movf        MODE_REQUEST, W      ; move what was received into working reg
0025   3A72           00106     xorlw       A'r'                 ; this operation will make Z flag = 0 if
                      00107                                      ; the character 'r' was received
0026   1903           00108     btfsc       STATUS, Z
0027   2???           00109     goto SET_MANUAL_MODE
                      00110 
0028                  00111 TEST_IF_D_UPPER
0028   08??           00112     movf        MODE_REQUEST, W      ; move what was received into working reg
0029   3A44           00113     xorlw       A'D'                 ; this operation will make Z flag = 0 if
                      00114                                      ; the character 'D' was received
002A   1903           00115     btfsc       STATUS, Z
002B   2???           00116     goto CONVERSION_REQUEST
                      00117 
002C                  00118 TEST_IF_D_LOWER
002C   08??           00119     movf        MODE_REQUEST, W      ; move what was received into working reg
002D   3A64           00120     xorlw       A'd'                 ; this operation will make Z flag = 0 if
                      00121                                      ; the character 'd' was received
002E   1903           00122     btfsc       STATUS, Z
002F   2???           00123     goto CONVERSION_REQUEST
                      00124 
0030                  00125 SET_AUTOMATIC_MODE
0030   3041           00126     movlw       A'A'
0031   00??           00127     movwf       CURRENT_MODE         ; set the current mode reg to automatic
0032   1683 1303      00128     banksel     PIE1
Message[302]: Register in operand not in bank 0.  Ensure that bank bits are correct.
0034   140C           00129     bsf         PIE1, TMR1IE         ; Timer1 interrupt enable
0035   2???           00130     goto EXIT_CALLBACK
                      00131 
0036                  00132 SET_MANUAL_MODE
0036   3052           00133     movlw       A'R'
0037   00??           00134     movwf       CURRENT_MODE         ; set the current mode reg to manual
0038   1683 1303      00135     banksel     PIE1
Message[302]: Register in operand not in bank 0.  Ensure that bank bits are correct.
003A   100C           00136     bcf         PIE1, TMR1IE         ; Timer1 interrupt disable
003B   2???           00137     goto EXIT_CALLBACK
                      00138 
003C                  00139 CONVERSION_REQUEST
003C   08??           00140     movf        CURRENT_MODE, W
003D   3A52           00141     xorlw       A'R'                 ; this operation will make Z flag = 0 if
                      00142                                      ; the current mode is manual! Thus the
                      00143                                      ; user has correctly requested a conersion
MPASM 5.86                         USART.ASM   11-29-2020  22:22:28         PAGE  4


LOC  OBJECT CODE     LINE SOURCE TEXT
  VALUE

003E   1903           00144     btfsc       STATUS, Z
003F   ???? ????      00145     PAGESEL     START_ADC
0041   2???           00146     call        START_ADC
                      00147 
0042                  00148 EXIT_CALLBACK
0042   0008           00149     return
                      00150 
                      00151 ; ----------------------------------
                      00152 ;              TXIF
                      00153 ; ----------------------------------
                      00154 
0043                  00155 TXIF_Callback
  0000                00156     GLOBAL      TXIF_Callback
0043   1283 1303      00157     banksel     TXREG
0045   3061           00158     movlw       A'a'     ; move the ASCII code of "a" to w
0046   0099           00159     movwf       TXREG    ; write to USART transfer register
0047   0008           00160     return
                      00161 
                      00162 ; ----------------------------------
                      00163 ;          end module code
                      00164 ; ----------------------------------
                      00165 
                      00166     end
MPASM 5.86                         USART.ASM   11-29-2020  22:22:28         PAGE  5


SYMBOL TABLE
  LABEL                             VALUE 

ACKDT                             00000005
ACKEN                             00000004
ACKSTAT                           00000006
ADCON0                            0000001F
ADCON1                            0000009F
ADCS0                             00000006
ADCS1                             00000007
ADDEN                             00000003
ADFM                              00000007
ADIE                              00000006
ADIF                              00000006
ADON                              00000000
ADRESH                            0000001E
ADRESL                            0000009E
BCLIE                             00000003
BCLIF                             00000003
BF                                00000000
BRGH                              00000002
C                                 00000000
CCP1CON                           00000017
CCP1IE                            00000002
CCP1IF                            00000002
CCP1M0                            00000000
CCP1M1                            00000001
CCP1M2                            00000002
CCP1M3                            00000003
CCP1X                             00000005
CCP1Y                             00000004
CCP2CON                           0000001D
CCP2IE                            00000000
CCP2IF                            00000000
CCP2M0                            00000000
CCP2M1                            00000001
CCP2M2                            00000002
CCP2M3                            00000003
CCP2X                             00000005
CCP2Y                             00000004
CCPR1                             00000015
CCPR1H                            00000016
CCPR1L                            00000015
CCPR2                             0000001B
CCPR2H                            0000001C
CCPR2L                            0000001B
CHS0                              00000003
CHS1                              00000004
CHS2                              00000005
CKE                               00000006
CKP                               00000004
CONVERSION_REQUEST                0000003C
CREN                              00000004
CSRC                              00000007
CURRENT_MODE                      00000000
D                                 00000005
MPASM 5.86                         USART.ASM   11-29-2020  22:22:28         PAGE  6


SYMBOL TABLE
  LABEL                             VALUE 

DATA_ADDRESS                      00000005
DC                                00000001
D_A                               00000005
D_NOT_A                           00000005
EEADR                             0000010D
EEADRH                            0000010F
EECON1                            0000018C
EECON2                            0000018D
EEDATA                            0000010C
EEDATH                            0000010E
EEIE                              00000004
EEIF                              00000004
EEPGD                             00000007
EXIT_CALLBACK                     00000042
F                                 00000001
FERR                              00000002
FSR                               00000004
GCEN                              00000007
GIE                               00000007
GO                                00000002
GO_DONE                           00000002
GO_NOT_DONE                       00000002
I2C_DATA                          00000005
I2C_READ                          00000002
I2C_START                         00000003
I2C_STOP                          00000004
IBF                               00000007
IBOV                              00000005
INDF                              00000000
INTCON                            0000000B
INTE                              00000004
INTEDG                            00000006
INTF                              00000001
IRP                               00000007
MODE_REQUEST                      00000000
NOT_A                             00000005
NOT_ADDRESS                       00000005
NOT_BO                            00000000
NOT_BOR                           00000000
NOT_DONE                          00000002
NOT_PD                            00000003
NOT_POR                           00000001
NOT_RBPU                          00000007
NOT_RC8                           00000006
NOT_T1SYNC                        00000002
NOT_TO                            00000004
NOT_TX8                           00000006
NOT_W                             00000002
NOT_WRITE                         00000002
OBF                               00000006
OERR                              00000001
OPTION_REG                        00000081
P                                 00000004
MPASM 5.86                         USART.ASM   11-29-2020  22:22:28         PAGE  7


SYMBOL TABLE
  LABEL                             VALUE 

PCFG0                             00000000
PCFG1                             00000001
PCFG2                             00000002
PCFG3                             00000003
PCL                               00000002
PCLATH                            0000000A
PCON                              0000008E
PEIE                              00000006
PEN                               00000002
PIE1                              0000008C
PIE2                              0000008D
PIR1                              0000000C
PIR2                              0000000D
PORTA                             00000005
PORTB                             00000006
PORTC                             00000007
PORTD                             00000008
PORTE                             00000009
PR2                               00000092
PS0                               00000000
PS1                               00000001
PS2                               00000002
PSA                               00000003
PSPIE                             00000007
PSPIF                             00000007
PSPMODE                           00000004
PTR_PROMPT_MSG                    00000021
R                                 00000002
RA0                               00000000
RA1                               00000001
RA2                               00000002
RA3                               00000003
RA4                               00000004
RA5                               00000005
RB0                               00000000
RB1                               00000001
RB2                               00000002
RB3                               00000003
RB4                               00000004
RB5                               00000005
RB6                               00000006
RB7                               00000007
RBIE                              00000003
RBIF                              00000000
RC0                               00000000
RC1                               00000001
RC2                               00000002
RC3                               00000003
RC4                               00000004
RC5                               00000005
RC6                               00000006
RC7                               00000007
RC8_9                             00000006
MPASM 5.86                         USART.ASM   11-29-2020  22:22:28         PAGE  8


SYMBOL TABLE
  LABEL                             VALUE 

RC9                               00000006
RCD8                              00000000
RCEN                              00000003
RCIE                              00000005
RCIF                              00000005
RCIF_Callback                     00000014
RCREG                             0000001A
RCSTA                             00000018
RD                                00000000
RD0                               00000000
RD1                               00000001
RD2                               00000002
RD3                               00000003
RD4                               00000004
RD5                               00000005
RD6                               00000006
RD7                               00000007
RE0                               00000000
RE1                               00000001
RE2                               00000002
READ_WRITE                        00000002
RP0                               00000005
RP1                               00000006
RSEN                              00000001
RX9                               00000006
RX9D                              00000000
R_NOT_W                           00000002
R_W                               00000002
S                                 00000003
SEN                               00000000
SET_AUTOMATIC_MODE                00000030
SET_MANUAL_MODE                   00000036
SIZE_PROMPT_MSG                   00000006
SMP                               00000007
SPBRG                             00000099
SPEN                              00000007
SREN                              00000005
SSPADD                            00000093
SSPBUF                            00000013
SSPCON                            00000014
SSPCON2                           00000091
SSPEN                             00000005
SSPIE                             00000003
SSPIF                             00000003
SSPM0                             00000000
SSPM1                             00000001
SSPM2                             00000002
SSPM3                             00000003
SSPOV                             00000006
SSPSTAT                           00000094
START_ADC                         00000000
STATUS                            00000003
SYNC                              00000004
MPASM 5.86                         USART.ASM   11-29-2020  22:22:28         PAGE  9


SYMBOL TABLE
  LABEL                             VALUE 

T0CS                              00000005
T0IE                              00000005
T0IF                              00000002
T0SE                              00000004
T1CKPS0                           00000004
T1CKPS1                           00000005
T1CON                             00000010
T1INSYNC                          00000002
T1OSCEN                           00000003
T1SYNC                            00000002
T2CKPS0                           00000000
T2CKPS1                           00000001
T2CON                             00000012
TEST_IF_A_LOWER                   0000001C
TEST_IF_A_UPPER                   00000018
TEST_IF_D_LOWER                   0000002C
TEST_IF_D_UPPER                   00000028
TEST_IF_R_LOWER                   00000024
TEST_IF_R_UPPER                   00000020
TMR0                              00000001
TMR0IE                            00000005
TMR0IF                            00000002
TMR1                              0000000E
TMR1CS                            00000001
TMR1H                             0000000F
TMR1IE                            00000000
TMR1IF                            00000000
TMR1L                             0000000E
TMR1ON                            00000000
TMR2                              00000011
TMR2IE                            00000001
TMR2IF                            00000001
TMR2ON                            00000002
TOUTPS0                           00000003
TOUTPS1                           00000004
TOUTPS2                           00000005
TOUTPS3                           00000006
TRISA                             00000085
TRISA0                            00000000
TRISA1                            00000001
TRISA2                            00000002
TRISA3                            00000003
TRISA4                            00000004
TRISA5                            00000005
TRISB                             00000086
TRISB0                            00000000
TRISB1                            00000001
TRISB2                            00000002
TRISB3                            00000003
TRISB4                            00000004
TRISB5                            00000005
TRISB6                            00000006
TRISB7                            00000007
MPASM 5.86                         USART.ASM   11-29-2020  22:22:28         PAGE 10


SYMBOL TABLE
  LABEL                             VALUE 

TRISC                             00000087
TRISC0                            00000000
TRISC1                            00000001
TRISC2                            00000002
TRISC3                            00000003
TRISC4                            00000004
TRISC5                            00000005
TRISC6                            00000006
TRISC7                            00000007
TRISD                             00000088
TRISD0                            00000000
TRISD1                            00000001
TRISD2                            00000002
TRISD3                            00000003
TRISD4                            00000004
TRISD5                            00000005
TRISD6                            00000006
TRISD7                            00000007
TRISE                             00000089
TRISE0                            00000000
TRISE1                            00000001
TRISE2                            00000002
TRMT                              00000001
TX8_9                             00000006
TX9                               00000006
TX9D                              00000000
TXD8                              00000000
TXEN                              00000005
TXIE                              00000004
TXIF                              00000004
TXIF_Callback                     00000043
TXREG                             00000019
TXSTA                             00000098
TX_CHAR_COUNT                     00000000
UA                                00000001
USART_Config                      00000000
W                                 00000000
WCOL                              00000007
WR                                00000001
WREN                              00000002
WRERR                             00000003
X_VAL_SPBRG                       00000019
Z                                 00000002
_BODEN_OFF                        00003FBF
_BODEN_ON                         00003FFF
_BOREN_OFF                        00003FBF
_BOREN_ON                         00003FFF
_CONFIG                           00002007
_CPD_OFF                          00003FFF
_CPD_ON                           00003EFF
_CP_ALL                           00000FCF
_CP_HALF                          00001FDF
_CP_OFF                           00003FFF
MPASM 5.86                         USART.ASM   11-29-2020  22:22:28         PAGE 11


SYMBOL TABLE
  LABEL                             VALUE 

_CP_UPPER_256                     00002FEF
_DEBUG_OFF                        00003FFF
_DEBUG_ON                         000037FF
_DEVID1                           00002006
_FOSC_EXTRC                       00003FFF
_FOSC_HS                          00003FFE
_FOSC_LP                          00003FFC
_FOSC_XT                          00003FFD
_HS_OSC                           00003FFE
_IDLOC0                           00002000
_IDLOC1                           00002001
_IDLOC2                           00002002
_IDLOC3                           00002003
_LP_OSC                           00003FFC
_LVP_OFF                          00003F7F
_LVP_ON                           00003FFF
_PWRTE_OFF                        00003FFF
_PWRTE_ON                         00003FF7
_RC_OSC                           00003FFF
_WDTE_OFF                         00003FFB
_WDTE_ON                          00003FFF
_WDT_OFF                          00003FFB
_WDT_ON                           00003FFF
_WRT_ENABLE_OFF                   00003DFF
_WRT_ENABLE_ON                    00003FFF
_WRT_OFF                          00003DFF
_WRT_ON                           00003FFF
_XT_OSC                           00003FFD
__16F877A                         00000001
__DEBUG                           
__MPLAB_DEBUGGER_SIMULATOR        1

Errors   :     0
Warnings :     0 reported,     0 suppressed
Messages :     6 reported,     0 suppressed

